; Function Attrs: mustprogress uwtable
define dso_local noundef zeroext i1 @_ZNK18FunctionInvocation18has_uncertain_callEv(ptr noundef nonnull readonly align 8 captures(none) dereferenceable(56) %0) unnamed_addr #3 align 2 {
  %2 = getelementptr inbounds nuw i8, ptr %0, i64 16
  %3 = getelementptr inbounds nuw i8, ptr %0, i64 24
  %4 = load ptr, ptr %3, align 8, !tbaa !111
  %5 = load ptr, ptr %2, align 8, !tbaa !113
  %.not8 = icmp eq ptr %4, %5
  br i1 %.not8, label %._crit_edge, label %.lr.ph

.lr.ph:                                           ; preds = %1, %.lr.ph
  %6 = phi ptr [ %13, %.lr.ph ], [ %5, %1 ]
  %.07 = phi i64 [ %11, %.lr.ph ], [ 0, %1 ]
  %.056 = phi i32 [ %spec.select, %.lr.ph ], [ 0, %1 ]
  %7 = getelementptr inbounds nuw ptr, ptr %6, i64 %.07
  %8 = load ptr, ptr %7, align 8, !tbaa !99
  %9 = tail call noundef i32 @_ZNK10Expression10func_countEv(ptr noundef nonnull align 8 dereferenceable(24) %8)
  %.not = icmp ne i32 %9, 0
  %10 = zext i1 %.not to i32
  %spec.select = add nuw nsw i32 %.056, %10
  %11 = add nuw i64 %.07, 1
  %12 = load ptr, ptr %3, align 8, !tbaa !111
  %13 = load ptr, ptr %2, align 8, !tbaa !113
  %14 = ptrtoint ptr %12 to i64
  %15 = ptrtoint ptr %13 to i64
  %16 = sub i64 %14, %15
  %17 = ashr exact i64 %16, 3
  %18 = icmp ult i64 %11, %17
  br i1 %18, label %.lr.ph, label %._crit_edge.loopexit, !llvm.loop !130

._crit_edge.loopexit:                             ; preds = %.lr.ph
  %19 = icmp samesign ugt i32 %spec.select, 1
  br label %._crit_edge

._crit_edge:                                      ; preds = %._crit_edge.loopexit, %1
  %.05.lcssa = phi i1 [ false, %1 ], [ %19, %._crit_edge.loopexit ]
  ret i1 %.05.lcssa
}